	.file	"harness.c"
	.text
	.globl	P1
	.type	P1, @function
P1:
.LFB2:
	.cfi_startproc
	pushq	%rbp
	.cfi_def_cfa_offset 16
	.cfi_offset 6, -16
	movq	%rsp, %rbp
	.cfi_def_cfa_register 6
	movq	%rdi, -8(%rbp)
	movq	-8(%rbp), %rax
	movl	$12, (%rax)
	popq	%rbp
	.cfi_def_cfa 7, 8
	ret
	.cfi_endproc
.LFE2:
	.size	P1, .-P1
	.section	.rodata
.LC0:
	.string	"x: %d\n"
	.text
	.globl	main
	.type	main, @function
main:
.LFB3:
	.cfi_startproc
	pushq	%rbp
	.cfi_def_cfa_offset 16
	.cfi_offset 6, -16
	movq	%rsp, %rbp
	.cfi_def_cfa_register 6
	subq	$32, %rsp
	movl	%edi, -20(%rbp)
	movl	%esi, -24(%rbp)
	movl	$0, -4(%rbp)
	leaq	-4(%rbp), %rdx
	leaq	-16(%rbp), %rax
	movq	%rdx, %rcx
	movl	$P1, %edx
	movl	$0, %esi
	movq	%rax, %rdi
	call	pthread_create
	movq	-16(%rbp), %rax
	movl	$0, %esi
	movq	%rax, %rdi
	call	pthread_join
	movl	-4(%rbp), %eax
	movl	%eax, %esi
	movl	$.LC0, %edi
	movl	$0, %eax
	call	printf
	movl	$1, %eax
	leave
	.cfi_def_cfa 7, 8
	ret
	.cfi_endproc
.LFE3:
	.size	main, .-main
	.ident	"GCC: (GNU) 4.8.5 20150623 (Red Hat 4.8.5-36)"
	.section	.note.GNU-stack,"",@progbits
